target datalayout = "e-m:e-p270:32:32-p271:32:32-p272:64:64-i64:64-i128:128-f80:128-n8:16:32:64-S128"
target triple = "x86_64-pc-linux-gnu"

%"class.ceres::internal::CudaVector" = type { i32, ptr, %"class.ceres::internal::CudaBuffer", ptr }
%"class.ceres::internal::CudaBuffer" = type { ptr, i64, ptr }
%"class.Eigen::PlainObjectBase" = type { %"class.Eigen::DenseStorage" }
%"class.Eigen::DenseStorage" = type { ptr, i64 }

; Function Attrs: mustprogress nounwind uwtable
define linkonce_odr hidden noundef ptr @_ZNK5Eigen12DenseStorageIdLin1ELin1ELi1ELi0EE4dataEv(ptr noundef nonnull align 8 dereferenceable(16) %0) #1 comdat align 2 {
  %2 = alloca ptr, align 8
  store ptr %0, ptr %2, align 8
  %3 = load ptr, ptr %2, align 8
  %4 = getelementptr inbounds %"class.Eigen::DenseStorage", ptr %3, i32 0, i32 0
  %5 = load ptr, ptr %4, align 8
  ret ptr %5
}

; Function Attrs: mustprogress nounwind uwtable
define linkonce_odr hidden noundef i64 @_ZNK5Eigen12DenseStorageIdLin1ELin1ELi1ELi0EE4rowsEv(ptr noundef nonnull align 8 dereferenceable(16) %0) #1 comdat align 2 {
  %2 = alloca ptr, align 8
  store ptr %0, ptr %2, align 8
  %3 = load ptr, ptr %2, align 8
  %4 = getelementptr inbounds %"class.Eigen::DenseStorage", ptr %3, i32 0, i32 1
  %5 = load i64, ptr %4, align 8
  ret i64 %5
}

; Function Attrs: mustprogress uwtable
define hidden void @_ZN5ceres8internal10CudaVector11CopyFromCpuEPKd(ptr noundef nonnull align 8 dereferenceable(48) %0, ptr noundef %1) #2 align 2 {
  %3 = alloca ptr, align 8
  %4 = alloca ptr, align 8
  store ptr %0, ptr %3, align 8
  store ptr %1, ptr %4, align 8
  %5 = load ptr, ptr %3, align 8
  %6 = getelementptr inbounds %"class.ceres::internal::CudaVector", ptr %5, i32 0, i32 2
  %7 = load ptr, ptr %4, align 8
  %8 = getelementptr inbounds %"class.ceres::internal::CudaVector", ptr %5, i32 0, i32 0
  %9 = load i32, ptr %8, align 8
  %10 = sext i32 %9 to i64
  call void @_ZN5ceres8internal10CudaBufferIdE11CopyFromCpuEPKdm(ptr noundef nonnull align 8 dereferenceable(24) %6, ptr noundef %7, i64 noundef %10)
  ret void
}

; Function Attrs: mustprogress uwtable
define linkonce_odr hidden noundef ptr @_ZNK5Eigen15PlainObjectBaseINS_6MatrixIdLin1ELi1ELi0ELin1ELi1EEEE4dataEv(ptr noundef nonnull align 8 dereferenceable(16) %0) #2 comdat align 2 {
  %2 = alloca ptr, align 8
  store ptr %0, ptr %2, align 8
  %3 = load ptr, ptr %2, align 8
  %4 = getelementptr inbounds %"class.Eigen::PlainObjectBase", ptr %3, i32 0, i32 0
  %5 = call noundef ptr @_ZNK5Eigen12DenseStorageIdLin1ELin1ELi1ELi0EE4dataEv(ptr noundef nonnull align 8 dereferenceable(16) %4)
  ret ptr %5
}

; Function Attrs: mustprogress nounwind uwtable
define linkonce_odr hidden noundef i64 @_ZNK5Eigen15PlainObjectBaseINS_6MatrixIdLin1ELi1ELi0ELin1ELi1EEEE4rowsEv(ptr noundef nonnull align 8 dereferenceable(16) %0) #1 comdat align 2 {
  %2 = alloca ptr, align 8
  store ptr %0, ptr %2, align 8
  %3 = load ptr, ptr %2, align 8
  %4 = getelementptr inbounds %"class.Eigen::PlainObjectBase", ptr %3, i32 0, i32 0
  %5 = call noundef i64 @_ZNK5Eigen12DenseStorageIdLin1ELin1ELi1ELi0EE4rowsEv(ptr noundef nonnull align 8 dereferenceable(16) %4) #9
  ret i64 %5
}

; Function Attrs: mustprogress uwtable
define hidden void @_ZN5ceres8internal10CudaVector11CopyFromCpuERKN5Eigen6MatrixIdLin1ELi1ELi0ELin1ELi1EEE(ptr noundef nonnull align 8 dereferenceable(48) %0, ptr noundef nonnull align 8 dereferenceable(16) %1) #2 align 2 {
  %3 = alloca ptr, align 8
  %4 = alloca ptr, align 8
  store ptr %0, ptr %3, align 8
  store ptr %1, ptr %4, align 8
  %5 = load ptr, ptr %3, align 8
  %6 = load ptr, ptr %4, align 8
  %7 = call noundef i64 @_ZNK5Eigen15PlainObjectBaseINS_6MatrixIdLin1ELi1ELi0ELin1ELi1EEEE4rowsEv(ptr noundef nonnull align 8 dereferenceable(16) %6) #9
  %8 = getelementptr inbounds %"class.ceres::internal::CudaVector", ptr %5, i32 0, i32 0
  %9 = load i32, ptr %8, align 8
  %10 = sext i32 %9 to i64
  %11 = icmp ne i64 %7, %10
  br i1 %11, label %12, label %16

12:                                               ; preds = %2
  %13 = load ptr, ptr %4, align 8
  %14 = call noundef i64 @_ZNK5Eigen15PlainObjectBaseINS_6MatrixIdLin1ELi1ELi0ELin1ELi1EEEE4rowsEv(ptr noundef nonnull align 8 dereferenceable(16) %13) #9
  %15 = trunc i64 %14 to i32
  call void @_ZN5ceres8internal10CudaVector6ResizeEi(ptr noundef nonnull align 8 dereferenceable(48) %5, i32 noundef %15)
  br label %16

16:                                               ; preds = %12, %2
  %17 = load ptr, ptr %4, align 8
  %18 = call noundef ptr @_ZNK5Eigen15PlainObjectBaseINS_6MatrixIdLin1ELi1ELi0ELin1ELi1EEEE4dataEv(ptr noundef nonnull align 8 dereferenceable(16) %17)
  call void @_ZN5ceres8internal10CudaVector11CopyFromCpuEPKd(ptr noundef nonnull align 8 dereferenceable(48) %5, ptr noundef %18)
  ret void
}