; Function Attrs: mustprogress uwtable
define hidden void @_ZN5ceres8internal10CudaVector11CopyFromCpuERKN5Eigen6MatrixIdLin1ELi1ELi0ELin1ELi1EEE(ptr noundef nonnull align 8 dereferenceable(48) %0, ptr nocapture noundef nonnull readonly align 8 dereferenceable(16) %1) local_unnamed_addr #0 align 2 {
  %3 = getelementptr inbounds i8, ptr %1, i64 8
  %4 = load i64, ptr %3, align 8
  %5 = load i32, ptr %0, align 8
  %6 = sext i32 %5 to i64
  %.not = icmp eq i64 %4, %6
  br i1 %.not, label %9, label %7

7:                                                ; preds = %2
  %8 = trunc i64 %4 to i32
  tail call void @_ZN5ceres8internal10CudaVector6ResizeEi(ptr noundef nonnull align 8 dereferenceable(48) %0, i32 noundef %8)
  %.pre = load i32, ptr %0, align 8
  %.pre4 = sext i32 %.pre to i64
  br label %9

9:                                                ; preds = %7, %2
  %.pre-phi = phi i64 [ %.pre4, %7 ], [ %6, %2 ]
  %10 = load ptr, ptr %1, align 8
  %11 = getelementptr inbounds i8, ptr %0, i64 16
  tail call void @_ZN5ceres8internal10CudaBufferIdE11CopyFromCpuEPKdm(ptr noundef nonnull align 8 dereferenceable(24) %11, ptr noundef %10, i64 noundef %.pre-phi)
  ret void
}